target datalayout = "e-m:e-p270:32:32-p271:32:32-p272:64:64-i64:64-i128:128-f80:128-n8:16:32:64-S128"
target triple = "x86_64-pc-linux-gnu"

%struct.AVFormatContext = type { ptr, ptr, ptr, ptr, ptr, i32, i32, ptr, i32, ptr, i32, ptr, ptr, i64, i64, i64, i32, i32, i32, i64, i64, ptr, i32, i32, ptr, i32, i32, i32, i32, ptr, i64, i32, i32, %struct.AVIOInterruptCB, i32, i32, i32, i32, i64, i32, i32, i32, i32, i32, i32, i32, i32, i32, i32, i32, i32, i64, i32, i32, i32, i32, i32, ptr, ptr, ptr, ptr, i32, ptr, ptr, ptr, ptr, i32, ptr, ptr, i64, ptr, ptr, ptr, i64 }
%struct.AVIOInterruptCB = type { ptr, ptr }
%struct.MP3Context = type { ptr, %struct.ID3v2EncContext, i32, i32, i32, ptr, i32, i32, i32, i64, i32, i32, i32, i32, i32, i32, [400 x i64], i32, i32, i32, i32, i32, i32, %struct.PacketList }
%struct.ID3v2EncContext = type { i32, i64, i32 }
%struct.PacketList = type { ptr, ptr }
%struct.AVPacket = type { ptr, i64, i64, ptr, i32, i32, i32, ptr, i32, i64, i64, ptr, ptr, %struct.AVRational }
%struct.AVRational = type { i32, i32 }
%struct.MPADecodeHeader = type { i32, i32, i32, i32, i32, i32, i32, i32, i32, i32 }

@.str.26 = private unnamed_addr constant [80 x i8] c"Audio packet of size %d (starting with %08X...) is invalid, writing it anyway.\0A\00", align 1

; Function Attrs: nounwind uwtable
define internal void @mp3_xing_add_frame(ptr noundef %0, ptr noundef %1) #0 {
  %3 = alloca ptr, align 8
  %4 = alloca ptr, align 8
  %5 = alloca i32, align 4
  store ptr %0, ptr %3, align 8, !tbaa !26
  store ptr %1, ptr %4, align 8, !tbaa !37
  call void @llvm.lifetime.start.p0(i64 4, ptr %5) #12
  %6 = load ptr, ptr %3, align 8, !tbaa !26
  %7 = getelementptr inbounds nuw %struct.MP3Context, ptr %6, i32 0, i32 11
  %8 = load i32, ptr %7, align 4, !tbaa !111
  %9 = add nsw i32 %8, 1
  store i32 %9, ptr %7, align 4, !tbaa !111
  %10 = load ptr, ptr %3, align 8, !tbaa !26
  %11 = getelementptr inbounds nuw %struct.MP3Context, ptr %10, i32 0, i32 14
  %12 = load i32, ptr %11, align 8, !tbaa !88
  %13 = add i32 %12, 1
  store i32 %13, ptr %11, align 8, !tbaa !88
  %14 = load ptr, ptr %4, align 8, !tbaa !37
  %15 = getelementptr inbounds nuw %struct.AVPacket, ptr %14, i32 0, i32 4
  %16 = load i32, ptr %15, align 8, !tbaa !103
  %17 = load ptr, ptr %3, align 8, !tbaa !26
  %18 = getelementptr inbounds nuw %struct.MP3Context, ptr %17, i32 0, i32 12
  %19 = load i32, ptr %18, align 8, !tbaa !86
  %20 = add nsw i32 %19, %16
  store i32 %20, ptr %18, align 8, !tbaa !86
  %21 = load ptr, ptr %3, align 8, !tbaa !26
  %22 = getelementptr inbounds nuw %struct.MP3Context, ptr %21, i32 0, i32 13
  %23 = load i32, ptr %22, align 4, !tbaa !87
  %24 = load ptr, ptr %3, align 8, !tbaa !26
  %25 = getelementptr inbounds nuw %struct.MP3Context, ptr %24, i32 0, i32 14
  %26 = load i32, ptr %25, align 8, !tbaa !88
  %27 = icmp eq i32 %23, %26
  br i1 %27, label %28, label %75

28:                                               ; preds = %2
  %29 = load ptr, ptr %3, align 8, !tbaa !26
  %30 = getelementptr inbounds nuw %struct.MP3Context, ptr %29, i32 0, i32 12
  %31 = load i32, ptr %30, align 8, !tbaa !86
  %32 = sext i32 %31 to i64
  %33 = load ptr, ptr %3, align 8, !tbaa !26
  %34 = getelementptr inbounds nuw %struct.MP3Context, ptr %33, i32 0, i32 16
  %35 = load ptr, ptr %3, align 8, !tbaa !26
  %36 = getelementptr inbounds nuw %struct.MP3Context, ptr %35, i32 0, i32 15
  %37 = load i32, ptr %36, align 4, !tbaa !89
  %38 = zext i32 %37 to i64
  %39 = getelementptr inbounds nuw [400 x i64], ptr %34, i64 0, i64 %38
  store i64 %32, ptr %39, align 8, !tbaa !108
  %40 = load ptr, ptr %3, align 8, !tbaa !26
  %41 = getelementptr inbounds nuw %struct.MP3Context, ptr %40, i32 0, i32 15
  %42 = load i32, ptr %41, align 4, !tbaa !89
  %43 = add i32 %42, 1
  store i32 %43, ptr %41, align 4, !tbaa !89
  %44 = icmp eq i32 400, %43
  br i1 %44, label %45, label %72

45:                                               ; preds = %28
  store i32 1, ptr %5, align 4, !tbaa !34
  br label %46

46:                                               ; preds = %62, %45
  %47 = load i32, ptr %5, align 4, !tbaa !34
  %48 = icmp slt i32 %47, 400
  br i1 %48, label %49, label %65

49:                                               ; preds = %46
  %50 = load ptr, ptr %3, align 8, !tbaa !26
  %51 = getelementptr inbounds nuw %struct.MP3Context, ptr %50, i32 0, i32 16
  %52 = load i32, ptr %5, align 4, !tbaa !34
  %53 = sext i32 %52 to i64
  %54 = getelementptr inbounds [400 x i64], ptr %51, i64 0, i64 %53
  %55 = load i64, ptr %54, align 8, !tbaa !108
  %56 = load ptr, ptr %3, align 8, !tbaa !26
  %57 = getelementptr inbounds nuw %struct.MP3Context, ptr %56, i32 0, i32 16
  %58 = load i32, ptr %5, align 4, !tbaa !34
  %59 = ashr i32 %58, 1
  %60 = sext i32 %59 to i64
  %61 = getelementptr inbounds [400 x i64], ptr %57, i64 0, i64 %60
  store i64 %55, ptr %61, align 8, !tbaa !108
  br label %62

62:                                               ; preds = %49
  %63 = load i32, ptr %5, align 4, !tbaa !34
  %64 = add nsw i32 %63, 2
  store i32 %64, ptr %5, align 4, !tbaa !34
  br label %46, !llvm.loop !112

65:                                               ; preds = %46
  %66 = load ptr, ptr %3, align 8, !tbaa !26
  %67 = getelementptr inbounds nuw %struct.MP3Context, ptr %66, i32 0, i32 13
  %68 = load i32, ptr %67, align 4, !tbaa !87
  %69 = mul i32 %68, 2
  store i32 %69, ptr %67, align 4, !tbaa !87
  %70 = load ptr, ptr %3, align 8, !tbaa !26
  %71 = getelementptr inbounds nuw %struct.MP3Context, ptr %70, i32 0, i32 15
  store i32 200, ptr %71, align 4, !tbaa !89
  br label %72

72:                                               ; preds = %65, %28
  %73 = load ptr, ptr %3, align 8, !tbaa !26
  %74 = getelementptr inbounds nuw %struct.MP3Context, ptr %73, i32 0, i32 14
  store i32 0, ptr %74, align 8, !tbaa !88
  br label %75

75:                                               ; preds = %72, %2
  call void @llvm.lifetime.end.p0(i64 4, ptr %5) #12
  ret void
}

; Function Attrs: alwaysinline nounwind willreturn memory(none) uwtable
define internal i32 @av_bswap32(i32 noundef %0) #8 {
  %2 = alloca i32, align 4
  store i32 %0, ptr %2, align 4, !tbaa !34
  %3 = load i32, ptr %2, align 4, !tbaa !34
  %4 = shl i32 %3, 8
  %5 = and i32 %4, 65280
  %6 = load i32, ptr %2, align 4, !tbaa !34
  %7 = lshr i32 %6, 8
  %8 = and i32 %7, 255
  %9 = or i32 %5, %8
  %10 = shl i32 %9, 16
  %11 = load i32, ptr %2, align 4, !tbaa !34
  %12 = lshr i32 %11, 16
  %13 = shl i32 %12, 8
  %14 = and i32 %13, 65280
  %15 = load i32, ptr %2, align 4, !tbaa !34
  %16 = lshr i32 %15, 16
  %17 = lshr i32 %16, 8
  %18 = and i32 %17, 255
  %19 = or i32 %14, %18
  %20 = or i32 %10, %19
  ret i32 %20
}

; Function Attrs: nounwind uwtable
define internal i32 @mp3_write_audio_packet(ptr noundef %0, ptr noundef %1) #0 {
  %3 = alloca ptr, align 8
  %4 = alloca ptr, align 8
  %5 = alloca ptr, align 8
  %6 = alloca %struct.MPADecodeHeader, align 4
  %7 = alloca i32, align 4
  %8 = alloca i32, align 4
  %9 = alloca ptr, align 8
  %10 = alloca i64, align 8
  store ptr %0, ptr %3, align 8, !tbaa !4
  store ptr %1, ptr %4, align 8, !tbaa !37
  call void @llvm.lifetime.start.p0(i64 8, ptr %5) #12
  %11 = load ptr, ptr %3, align 8, !tbaa !4
  %12 = getelementptr inbounds nuw %struct.AVFormatContext, ptr %11, i32 0, i32 3
  %13 = load ptr, ptr %12, align 8, !tbaa !9
  store ptr %13, ptr %5, align 8, !tbaa !26
  %14 = load ptr, ptr %4, align 8, !tbaa !37
  %15 = getelementptr inbounds nuw %struct.AVPacket, ptr %14, i32 0, i32 3
  %16 = load ptr, ptr %15, align 8, !tbaa !102
  %17 = icmp ne ptr %16, null
  br i1 %17, label %18, label %144

18:                                               ; preds = %2
  %19 = load ptr, ptr %4, align 8, !tbaa !37
  %20 = getelementptr inbounds nuw %struct.AVPacket, ptr %19, i32 0, i32 4
  %21 = load i32, ptr %20, align 8, !tbaa !103
  %22 = icmp sge i32 %21, 4
  br i1 %22, label %23, label %144

23:                                               ; preds = %18
  call void @llvm.lifetime.start.p0(i64 40, ptr %6) #12
  call void @llvm.lifetime.start.p0(i64 4, ptr %7) #12
  call void @llvm.lifetime.start.p0(i64 4, ptr %8) #12
  %24 = load ptr, ptr %4, align 8, !tbaa !37
  %25 = getelementptr inbounds nuw %struct.AVPacket, ptr %24, i32 0, i32 3
  %26 = load ptr, ptr %25, align 8, !tbaa !102
  %27 = load i32, ptr %26, align 1, !tbaa !83
  %28 = call i32 @av_bswap32(i32 noundef %27) #15
  store i32 %28, ptr %8, align 4, !tbaa !34
  %29 = load i32, ptr %8, align 4, !tbaa !34
  %30 = call i32 @avpriv_mpegaudio_decode_header(ptr noundef %6, i32 noundef %29)
  store i32 %30, ptr %7, align 4, !tbaa !34
  %31 = load i32, ptr %7, align 4, !tbaa !34
  %32 = icmp sge i32 %31, 0
  br i1 %32, label %33, label %58

33:                                               ; preds = %23
  %34 = load ptr, ptr %5, align 8, !tbaa !26
  %35 = getelementptr inbounds nuw %struct.MP3Context, ptr %34, i32 0, i32 17
  %36 = load i32, ptr %35, align 8, !tbaa !104
  %37 = icmp ne i32 %36, 0
  br i1 %37, label %43, label %38

38:                                               ; preds = %33
  %39 = getelementptr inbounds nuw %struct.MPADecodeHeader, ptr %6, i32 0, i32 5
  %40 = load i32, ptr %39, align 4, !tbaa !105
  %41 = load ptr, ptr %5, align 8, !tbaa !26
  %42 = getelementptr inbounds nuw %struct.MP3Context, ptr %41, i32 0, i32 17
  store i32 %40, ptr %42, align 8, !tbaa !104
  br label %43

43:                                               ; preds = %38, %33
  %44 = getelementptr inbounds nuw %struct.MPADecodeHeader, ptr %6, i32 0, i32 5
  %45 = load i32, ptr %44, align 4, !tbaa !105
  %46 = icmp eq i32 %45, 0
  br i1 %46, label %54, label %47

47:                                               ; preds = %43
  %48 = load ptr, ptr %5, align 8, !tbaa !26
  %49 = getelementptr inbounds nuw %struct.MP3Context, ptr %48, i32 0, i32 17
  %50 = load i32, ptr %49, align 8, !tbaa !104
  %51 = getelementptr inbounds nuw %struct.MPADecodeHeader, ptr %6, i32 0, i32 5
  %52 = load i32, ptr %51, align 4, !tbaa !105
  %53 = icmp ne i32 %50, %52
  br i1 %53, label %54, label %57

54:                                               ; preds = %47, %43
  %55 = load ptr, ptr %5, align 8, !tbaa !26
  %56 = getelementptr inbounds nuw %struct.MP3Context, ptr %55, i32 0, i32 18
  store i32 1, ptr %56, align 4, !tbaa !106
  br label %57

57:                                               ; preds = %54, %47
  br label %64

58:                                               ; preds = %23
  %59 = load ptr, ptr %3, align 8, !tbaa !4
  %60 = load ptr, ptr %4, align 8, !tbaa !37
  %61 = getelementptr inbounds nuw %struct.AVPacket, ptr %60, i32 0, i32 4
  %62 = load i32, ptr %61, align 8, !tbaa !103
  %63 = load i32, ptr %8, align 4, !tbaa !34
  call void (ptr, i32, ptr, ...) @av_log(ptr noundef %59, i32 noundef 24, ptr noundef @.str.26, i32 noundef %62, i32 noundef %63)
  br label %64

64:                                               ; preds = %58, %57
  %65 = load ptr, ptr %5, align 8, !tbaa !26
  %66 = getelementptr inbounds nuw %struct.MP3Context, ptr %65, i32 0, i32 10
  %67 = load i32, ptr %66, align 8, !tbaa !52
  %68 = icmp ne i32 %67, 0
  br i1 %68, label %69, label %143

69:                                               ; preds = %64
  call void @llvm.lifetime.start.p0(i64 8, ptr %9) #12
  store ptr null, ptr %9, align 8, !tbaa !97
  call void @llvm.lifetime.start.p0(i64 8, ptr %10) #12
  %70 = load ptr, ptr %5, align 8, !tbaa !26
  %71 = load ptr, ptr %4, align 8, !tbaa !37
  call void @mp3_xing_add_frame(ptr noundef %70, ptr noundef %71)
  %72 = load ptr, ptr %4, align 8, !tbaa !37
  %73 = getelementptr inbounds nuw %struct.AVPacket, ptr %72, i32 0, i32 4
  %74 = load i32, ptr %73, align 8, !tbaa !103
  %75 = load ptr, ptr %5, align 8, !tbaa !26
  %76 = getelementptr inbounds nuw %struct.MP3Context, ptr %75, i32 0, i32 8
  %77 = load i32, ptr %76, align 8, !tbaa !96
  %78 = add i32 %77, %74
  store i32 %78, ptr %76, align 8, !tbaa !96
  %79 = call ptr @av_crc_get_table(i32 noundef 5)
  %80 = load ptr, ptr %5, align 8, !tbaa !26
  %81 = getelementptr inbounds nuw %struct.MP3Context, ptr %80, i32 0, i32 7
  %82 = load i32, ptr %81, align 4, !tbaa !107
  %83 = load ptr, ptr %4, align 8, !tbaa !37
  %84 = getelementptr inbounds nuw %struct.AVPacket, ptr %83, i32 0, i32 3
  %85 = load ptr, ptr %84, align 8, !tbaa !102
  %86 = load ptr, ptr %4, align 8, !tbaa !37
  %87 = getelementptr inbounds nuw %struct.AVPacket, ptr %86, i32 0, i32 4
  %88 = load i32, ptr %87, align 8, !tbaa !103
  %89 = sext i32 %88 to i64
  %90 = call i32 @av_crc(ptr noundef %79, i32 noundef %82, ptr noundef %85, i64 noundef %89) #14
  %91 = load ptr, ptr %5, align 8, !tbaa !26
  %92 = getelementptr inbounds nuw %struct.MP3Context, ptr %91, i32 0, i32 7
  store i32 %90, ptr %92, align 4, !tbaa !107
  %93 = load ptr, ptr %4, align 8, !tbaa !37
  %94 = call ptr @av_packet_get_side_data(ptr noundef %93, i32 noundef 11, ptr noundef %10)
  store ptr %94, ptr %9, align 8, !tbaa !97
  %95 = load ptr, ptr %9, align 8, !tbaa !97
  %96 = icmp ne ptr %95, null
  br i1 %96, label %97, label %139

97:                                               ; preds = %69
  %98 = load i64, ptr %10, align 8, !tbaa !108
  %99 = icmp uge i64 %98, 10
  br i1 %99, label %100, label %139

100:                                              ; preds = %97
  %101 = load ptr, ptr %9, align 8, !tbaa !97
  %102 = getelementptr inbounds i8, ptr %101, i64 4
  %103 = load i32, ptr %102, align 1, !tbaa !83
  %104 = add i32 %103, 528
  %105 = add i32 %104, 1
  %106 = icmp ugt i32 %105, 0
  br i1 %106, label %107, label %113

107:                                              ; preds = %100
  %108 = load ptr, ptr %9, align 8, !tbaa !97
  %109 = getelementptr inbounds i8, ptr %108, i64 4
  %110 = load i32, ptr %109, align 1, !tbaa !83
  %111 = add i32 %110, 528
  %112 = add i32 %111, 1
  br label %114

113:                                              ; preds = %100
  br label %114

114:                                              ; preds = %113, %107
  %115 = phi i32 [ %112, %107 ], [ 0, %113 ]
  %116 = load ptr, ptr %5, align 8, !tbaa !26
  %117 = getelementptr inbounds nuw %struct.MP3Context, ptr %116, i32 0, i32 20
  store i32 %115, ptr %117, align 4, !tbaa !109
  %118 = load ptr, ptr %5, align 8, !tbaa !26
  %119 = getelementptr inbounds nuw %struct.MP3Context, ptr %118, i32 0, i32 19
  %120 = load i32, ptr %119, align 8, !tbaa !110
  %121 = icmp ne i32 %120, 0
  br i1 %121, label %138, label %122

122:                                              ; preds = %114
  %123 = load ptr, ptr %9, align 8, !tbaa !97
  %124 = load i32, ptr %123, align 1, !tbaa !83
  %125 = sub i32 %124, 528
  %126 = sub i32 %125, 1
  %127 = icmp ugt i32 %126, 0
  br i1 %127, label %128, label %133

128:                                              ; preds = %122
  %129 = load ptr, ptr %9, align 8, !tbaa !97
  %130 = load i32, ptr %129, align 1, !tbaa !83
  %131 = sub i32 %130, 528
  %132 = sub i32 %131, 1
  br label %134

133:                                              ; preds = %122
  br label %134

134:                                              ; preds = %133, %128
  %135 = phi i32 [ %132, %128 ], [ 0, %133 ]
  %136 = load ptr, ptr %5, align 8, !tbaa !26
  %137 = getelementptr inbounds nuw %struct.MP3Context, ptr %136, i32 0, i32 19
  store i32 %135, ptr %137, align 8, !tbaa !110
  br label %138

138:                                              ; preds = %134, %114
  br label %142

139:                                              ; preds = %97, %69
  %140 = load ptr, ptr %5, align 8, !tbaa !26
  %141 = getelementptr inbounds nuw %struct.MP3Context, ptr %140, i32 0, i32 20
  store i32 0, ptr %141, align 4, !tbaa !109
  br label %142

142:                                              ; preds = %139, %138
  call void @llvm.lifetime.end.p0(i64 8, ptr %10) #12
  call void @llvm.lifetime.end.p0(i64 8, ptr %9) #12
  br label %143

143:                                              ; preds = %142, %64
  call void @llvm.lifetime.end.p0(i64 4, ptr %8) #12
  call void @llvm.lifetime.end.p0(i64 4, ptr %7) #12
  call void @llvm.lifetime.end.p0(i64 40, ptr %6) #12
  br label %144

144:                                              ; preds = %143, %18, %2
  %145 = load ptr, ptr %3, align 8, !tbaa !4
  %146 = load ptr, ptr %4, align 8, !tbaa !37
  %147 = call i32 @ff_raw_write_packet(ptr noundef %145, ptr noundef %146)
  call void @llvm.lifetime.end.p0(i64 8, ptr %5) #12
  ret i32 %147
}